target datalayout = "e-m:e-p270:32:32-p271:32:32-p272:64:64-i64:64-i128:128-f80:128-n8:16:32:64-S128"
target triple = "x86_64-pc-linux-gnu"

%struct.AVFilterContext = type { ptr, ptr, ptr, ptr, ptr, i32, ptr, ptr, i32, ptr, ptr, i32, i32, ptr, ptr, ptr, ptr, i32, ptr, i32, i32 }
%struct.XFadeContext = type { ptr, i32, i64, i64, ptr, i32, i32, i32, i64, i64, i64, i64, i32, [2 x i32], [2 x ptr], i32, [4 x i16], [4 x i16], ptr, ptr }
%struct.AVRational = type { i32, i32 }
%struct.AVFrame = type { [8 x ptr], [8 x i32], ptr, i32, i32, i32, i32, i32, %struct.AVRational, i64, i64, %struct.AVRational, i32, ptr, i32, i32, [8 x ptr], ptr, i32, ptr, i32, i32, i32, i32, i32, i32, i32, i64, ptr, i32, ptr, ptr, i64, i64, i64, i64, ptr, %struct.AVChannelLayout, i64 }
%struct.AVChannelLayout = type { i32, i32, %union.anon.1, ptr }
%union.anon.1 = type { i64 }

; Function Attrs: inlinehint nounwind uwtable
define internal float @mix(float noundef %0, float noundef %1, float noundef %2) #4 {
  %4 = alloca float, align 4
  %5 = alloca float, align 4
  %6 = alloca float, align 4
  store float %0, ptr %4, align 4, !tbaa !90
  store float %1, ptr %5, align 4, !tbaa !90
  store float %2, ptr %6, align 4, !tbaa !90
  %7 = load float, ptr %4, align 4, !tbaa !90
  %8 = load float, ptr %6, align 4, !tbaa !90
  %9 = load float, ptr %5, align 4, !tbaa !90
  %10 = load float, ptr %6, align 4, !tbaa !90
  %11 = fsub nsz float 1.000000e+00, %10
  %12 = fmul nsz float %9, %11
  %13 = call nsz float @llvm.fmuladd.f32(float %7, float %8, float %12)
  ret float %13
}

; Function Attrs: nounwind uwtable
define internal void @distance16_transition(ptr noundef %0, ptr noundef %1, ptr noundef %2, ptr noundef %3, float noundef %4, i32 noundef %5, i32 noundef %6, i32 noundef %7) #1 {
  %9 = alloca ptr, align 8
  %10 = alloca ptr, align 8
  %11 = alloca ptr, align 8
  %12 = alloca ptr, align 8
  %13 = alloca float, align 4
  %14 = alloca i32, align 4
  %15 = alloca i32, align 4
  %16 = alloca i32, align 4
  %17 = alloca ptr, align 8
  %18 = alloca i32, align 4
  %19 = alloca float, align 4
  %20 = alloca i32, align 4
  %21 = alloca i32, align 4
  %22 = alloca i32, align 4
  %23 = alloca float, align 4
  %24 = alloca i32, align 4
  %25 = alloca ptr, align 8
  %26 = alloca ptr, align 8
  %27 = alloca i32, align 4
  %28 = alloca ptr, align 8
  %29 = alloca ptr, align 8
  %30 = alloca ptr, align 8
  store ptr %0, ptr %9, align 8, !tbaa !4
  store ptr %1, ptr %10, align 8, !tbaa !36
  store ptr %2, ptr %11, align 8, !tbaa !36
  store ptr %3, ptr %12, align 8, !tbaa !36
  store float %4, ptr %13, align 4, !tbaa !90
  store i32 %5, ptr %14, align 4, !tbaa !32
  store i32 %6, ptr %15, align 4, !tbaa !32
  store i32 %7, ptr %16, align 4, !tbaa !32
  call void @llvm.lifetime.start.p0(i64 8, ptr %17) #10
  %31 = load ptr, ptr %9, align 8, !tbaa !4
  %32 = getelementptr inbounds nuw %struct.AVFilterContext, ptr %31, i32 0, i32 9
  %33 = load ptr, ptr %32, align 8, !tbaa !9
  store ptr %33, ptr %17, align 8, !tbaa !22
  call void @llvm.lifetime.start.p0(i64 4, ptr %18) #10
  %34 = load ptr, ptr %12, align 8, !tbaa !36
  %35 = getelementptr inbounds nuw %struct.AVFrame, ptr %34, i32 0, i32 3
  %36 = load i32, ptr %35, align 8, !tbaa !92
  store i32 %36, ptr %18, align 4, !tbaa !32
  call void @llvm.lifetime.start.p0(i64 4, ptr %19) #10
  %37 = load ptr, ptr %17, align 8, !tbaa !22
  %38 = getelementptr inbounds nuw %struct.XFadeContext, ptr %37, i32 0, i32 15
  %39 = load i32, ptr %38, align 8, !tbaa !83
  %40 = sitofp i32 %39 to float
  store float %40, ptr %19, align 4, !tbaa !90
  call void @llvm.lifetime.start.p0(i64 4, ptr %20) #10
  %41 = load i32, ptr %14, align 4, !tbaa !32
  store i32 %41, ptr %20, align 4, !tbaa !32
  br label %42

42:                                               ; preds = %235, %8
  %43 = load i32, ptr %20, align 4, !tbaa !32
  %44 = load i32, ptr %15, align 4, !tbaa !32
  %45 = icmp slt i32 %43, %44
  br i1 %45, label %47, label %46

46:                                               ; preds = %42
  store i32 2, ptr %21, align 4
  call void @llvm.lifetime.end.p0(i64 4, ptr %20) #10
  br label %238

47:                                               ; preds = %42
  call void @llvm.lifetime.start.p0(i64 4, ptr %22) #10
  store i32 0, ptr %22, align 4, !tbaa !32
  br label %48

48:                                               ; preds = %231, %47
  %49 = load i32, ptr %22, align 4, !tbaa !32
  %50 = load i32, ptr %18, align 4, !tbaa !32
  %51 = icmp slt i32 %49, %50
  br i1 %51, label %53, label %52

52:                                               ; preds = %48
  store i32 5, ptr %21, align 4
  call void @llvm.lifetime.end.p0(i64 4, ptr %22) #10
  br label %234

53:                                               ; preds = %48
  call void @llvm.lifetime.start.p0(i64 4, ptr %23) #10
  store float 0.000000e+00, ptr %23, align 4, !tbaa !90
  call void @llvm.lifetime.start.p0(i64 4, ptr %24) #10
  store i32 0, ptr %24, align 4, !tbaa !32
  br label %54

54:                                               ; preds = %134, %53
  %55 = load i32, ptr %24, align 4, !tbaa !32
  %56 = load ptr, ptr %17, align 8, !tbaa !22
  %57 = getelementptr inbounds nuw %struct.XFadeContext, ptr %56, i32 0, i32 5
  %58 = load i32, ptr %57, align 8, !tbaa !82
  %59 = icmp slt i32 %55, %58
  br i1 %59, label %61, label %60

60:                                               ; preds = %54
  store i32 8, ptr %21, align 4
  call void @llvm.lifetime.end.p0(i64 4, ptr %24) #10
  br label %137

61:                                               ; preds = %54
  call void @llvm.lifetime.start.p0(i64 8, ptr %25) #10
  %62 = load ptr, ptr %10, align 8, !tbaa !36
  %63 = getelementptr inbounds nuw %struct.AVFrame, ptr %62, i32 0, i32 0
  %64 = load i32, ptr %24, align 4, !tbaa !32
  %65 = sext i32 %64 to i64
  %66 = getelementptr inbounds [8 x ptr], ptr %63, i64 0, i64 %65
  %67 = load ptr, ptr %66, align 8, !tbaa !96
  %68 = load i32, ptr %20, align 4, !tbaa !32
  %69 = load ptr, ptr %10, align 8, !tbaa !36
  %70 = getelementptr inbounds nuw %struct.AVFrame, ptr %69, i32 0, i32 1
  %71 = load i32, ptr %24, align 4, !tbaa !32
  %72 = sext i32 %71 to i64
  %73 = getelementptr inbounds [8 x i32], ptr %70, i64 0, i64 %72
  %74 = load i32, ptr %73, align 4, !tbaa !32
  %75 = mul nsw i32 %68, %74
  %76 = sext i32 %75 to i64
  %77 = getelementptr inbounds i8, ptr %67, i64 %76
  store ptr %77, ptr %25, align 8, !tbaa !101
  call void @llvm.lifetime.start.p0(i64 8, ptr %26) #10
  %78 = load ptr, ptr %11, align 8, !tbaa !36
  %79 = getelementptr inbounds nuw %struct.AVFrame, ptr %78, i32 0, i32 0
  %80 = load i32, ptr %24, align 4, !tbaa !32
  %81 = sext i32 %80 to i64
  %82 = getelementptr inbounds [8 x ptr], ptr %79, i64 0, i64 %81
  %83 = load ptr, ptr %82, align 8, !tbaa !96
  %84 = load i32, ptr %20, align 4, !tbaa !32
  %85 = load ptr, ptr %11, align 8, !tbaa !36
  %86 = getelementptr inbounds nuw %struct.AVFrame, ptr %85, i32 0, i32 1
  %87 = load i32, ptr %24, align 4, !tbaa !32
  %88 = sext i32 %87 to i64
  %89 = getelementptr inbounds [8 x i32], ptr %86, i64 0, i64 %88
  %90 = load i32, ptr %89, align 4, !tbaa !32
  %91 = mul nsw i32 %84, %90
  %92 = sext i32 %91 to i64
  %93 = getelementptr inbounds i8, ptr %83, i64 %92
  store ptr %93, ptr %26, align 8, !tbaa !101
  %94 = load ptr, ptr %25, align 8, !tbaa !101
  %95 = load i32, ptr %22, align 4, !tbaa !32
  %96 = sext i32 %95 to i64
  %97 = getelementptr inbounds i16, ptr %94, i64 %96
  %98 = load i16, ptr %97, align 2, !tbaa !84
  %99 = zext i16 %98 to i32
  %100 = sitofp i32 %99 to float
  %101 = load float, ptr %19, align 4, !tbaa !90
  %102 = fdiv nsz float %100, %101
  %103 = load ptr, ptr %26, align 8, !tbaa !101
  %104 = load i32, ptr %22, align 4, !tbaa !32
  %105 = sext i32 %104 to i64
  %106 = getelementptr inbounds i16, ptr %103, i64 %105
  %107 = load i16, ptr %106, align 2, !tbaa !84
  %108 = zext i16 %107 to i32
  %109 = sitofp i32 %108 to float
  %110 = load float, ptr %19, align 4, !tbaa !90
  %111 = fdiv nsz float %109, %110
  %112 = fsub nsz float %102, %111
  %113 = load ptr, ptr %25, align 8, !tbaa !101
  %114 = load i32, ptr %22, align 4, !tbaa !32
  %115 = sext i32 %114 to i64
  %116 = getelementptr inbounds i16, ptr %113, i64 %115
  %117 = load i16, ptr %116, align 2, !tbaa !84
  %118 = zext i16 %117 to i32
  %119 = sitofp i32 %118 to float
  %120 = load float, ptr %19, align 4, !tbaa !90
  %121 = fdiv nsz float %119, %120
  %122 = load ptr, ptr %26, align 8, !tbaa !101
  %123 = load i32, ptr %22, align 4, !tbaa !32
  %124 = sext i32 %123 to i64
  %125 = getelementptr inbounds i16, ptr %122, i64 %124
  %126 = load i16, ptr %125, align 2, !tbaa !84
  %127 = zext i16 %126 to i32
  %128 = sitofp i32 %127 to float
  %129 = load float, ptr %19, align 4, !tbaa !90
  %130 = fdiv nsz float %128, %129
  %131 = fsub nsz float %121, %130
  %132 = load float, ptr %23, align 4, !tbaa !90
  %133 = call nsz float @llvm.fmuladd.f32(float %112, float %131, float %132)
  store float %133, ptr %23, align 4, !tbaa !90
  call void @llvm.lifetime.end.p0(i64 8, ptr %26) #10
  call void @llvm.lifetime.end.p0(i64 8, ptr %25) #10
  br label %134

134:                                              ; preds = %61
  %135 = load i32, ptr %24, align 4, !tbaa !32
  %136 = add nsw i32 %135, 1
  store i32 %136, ptr %24, align 4, !tbaa !32
  br label %54, !llvm.loop !176

137:                                              ; preds = %60
  %138 = load float, ptr %23, align 4, !tbaa !90
  %139 = call nsz float @llvm.sqrt.f32(float %138)
  %140 = load float, ptr %13, align 4, !tbaa !90
  %141 = fcmp nsz ole float %139, %140
  %142 = zext i1 %141 to i32
  %143 = sitofp i32 %142 to float
  store float %143, ptr %23, align 4, !tbaa !90
  call void @llvm.lifetime.start.p0(i64 4, ptr %27) #10
  store i32 0, ptr %27, align 4, !tbaa !32
  br label %144

144:                                              ; preds = %227, %137
  %145 = load i32, ptr %27, align 4, !tbaa !32
  %146 = load ptr, ptr %17, align 8, !tbaa !22
  %147 = getelementptr inbounds nuw %struct.XFadeContext, ptr %146, i32 0, i32 5
  %148 = load i32, ptr %147, align 8, !tbaa !82
  %149 = icmp slt i32 %145, %148
  br i1 %149, label %151, label %150

150:                                              ; preds = %144
  store i32 11, ptr %21, align 4
  call void @llvm.lifetime.end.p0(i64 4, ptr %27) #10
  br label %230

151:                                              ; preds = %144
  call void @llvm.lifetime.start.p0(i64 8, ptr %28) #10
  %152 = load ptr, ptr %10, align 8, !tbaa !36
  %153 = getelementptr inbounds nuw %struct.AVFrame, ptr %152, i32 0, i32 0
  %154 = load i32, ptr %27, align 4, !tbaa !32
  %155 = sext i32 %154 to i64
  %156 = getelementptr inbounds [8 x ptr], ptr %153, i64 0, i64 %155
  %157 = load ptr, ptr %156, align 8, !tbaa !96
  %158 = load i32, ptr %20, align 4, !tbaa !32
  %159 = load ptr, ptr %10, align 8, !tbaa !36
  %160 = getelementptr inbounds nuw %struct.AVFrame, ptr %159, i32 0, i32 1
  %161 = load i32, ptr %27, align 4, !tbaa !32
  %162 = sext i32 %161 to i64
  %163 = getelementptr inbounds [8 x i32], ptr %160, i64 0, i64 %162
  %164 = load i32, ptr %163, align 4, !tbaa !32
  %165 = mul nsw i32 %158, %164
  %166 = sext i32 %165 to i64
  %167 = getelementptr inbounds i8, ptr %157, i64 %166
  store ptr %167, ptr %28, align 8, !tbaa !101
  call void @llvm.lifetime.start.p0(i64 8, ptr %29) #10
  %168 = load ptr, ptr %11, align 8, !tbaa !36
  %169 = getelementptr inbounds nuw %struct.AVFrame, ptr %168, i32 0, i32 0
  %170 = load i32, ptr %27, align 4, !tbaa !32
  %171 = sext i32 %170 to i64
  %172 = getelementptr inbounds [8 x ptr], ptr %169, i64 0, i64 %171
  %173 = load ptr, ptr %172, align 8, !tbaa !96
  %174 = load i32, ptr %20, align 4, !tbaa !32
  %175 = load ptr, ptr %11, align 8, !tbaa !36
  %176 = getelementptr inbounds nuw %struct.AVFrame, ptr %175, i32 0, i32 1
  %177 = load i32, ptr %27, align 4, !tbaa !32
  %178 = sext i32 %177 to i64
  %179 = getelementptr inbounds [8 x i32], ptr %176, i64 0, i64 %178
  %180 = load i32, ptr %179, align 4, !tbaa !32
  %181 = mul nsw i32 %174, %180
  %182 = sext i32 %181 to i64
  %183 = getelementptr inbounds i8, ptr %173, i64 %182
  store ptr %183, ptr %29, align 8, !tbaa !101
  call void @llvm.lifetime.start.p0(i64 8, ptr %30) #10
  %184 = load ptr, ptr %12, align 8, !tbaa !36
  %185 = getelementptr inbounds nuw %struct.AVFrame, ptr %184, i32 0, i32 0
  %186 = load i32, ptr %27, align 4, !tbaa !32
  %187 = sext i32 %186 to i64
  %188 = getelementptr inbounds [8 x ptr], ptr %185, i64 0, i64 %187
  %189 = load ptr, ptr %188, align 8, !tbaa !96
  %190 = load i32, ptr %20, align 4, !tbaa !32
  %191 = load ptr, ptr %12, align 8, !tbaa !36
  %192 = getelementptr inbounds nuw %struct.AVFrame, ptr %191, i32 0, i32 1
  %193 = load i32, ptr %27, align 4, !tbaa !32
  %194 = sext i32 %193 to i64
  %195 = getelementptr inbounds [8 x i32], ptr %192, i64 0, i64 %194
  %196 = load i32, ptr %195, align 4, !tbaa !32
  %197 = mul nsw i32 %190, %196
  %198 = sext i32 %197 to i64
  %199 = getelementptr inbounds i8, ptr %189, i64 %198
  store ptr %199, ptr %30, align 8, !tbaa !101
  %200 = load ptr, ptr %28, align 8, !tbaa !101
  %201 = load i32, ptr %22, align 4, !tbaa !32
  %202 = sext i32 %201 to i64
  %203 = getelementptr inbounds i16, ptr %200, i64 %202
  %204 = load i16, ptr %203, align 2, !tbaa !84
  %205 = uitofp i16 %204 to float
  %206 = load ptr, ptr %29, align 8, !tbaa !101
  %207 = load i32, ptr %22, align 4, !tbaa !32
  %208 = sext i32 %207 to i64
  %209 = getelementptr inbounds i16, ptr %206, i64 %208
  %210 = load i16, ptr %209, align 2, !tbaa !84
  %211 = uitofp i16 %210 to float
  %212 = load float, ptr %23, align 4, !tbaa !90
  %213 = call nsz float @mix(float noundef %205, float noundef %211, float noundef %212)
  %214 = load ptr, ptr %29, align 8, !tbaa !101
  %215 = load i32, ptr %22, align 4, !tbaa !32
  %216 = sext i32 %215 to i64
  %217 = getelementptr inbounds i16, ptr %214, i64 %216
  %218 = load i16, ptr %217, align 2, !tbaa !84
  %219 = uitofp i16 %218 to float
  %220 = load float, ptr %13, align 4, !tbaa !90
  %221 = call nsz float @mix(float noundef %213, float noundef %219, float noundef %220)
  %222 = fptoui float %221 to i16
  %223 = load ptr, ptr %30, align 8, !tbaa !101
  %224 = load i32, ptr %22, align 4, !tbaa !32
  %225 = sext i32 %224 to i64
  %226 = getelementptr inbounds i16, ptr %223, i64 %225
  store i16 %222, ptr %226, align 2, !tbaa !84
  call void @llvm.lifetime.end.p0(i64 8, ptr %30) #10
  call void @llvm.lifetime.end.p0(i64 8, ptr %29) #10
  call void @llvm.lifetime.end.p0(i64 8, ptr %28) #10
  br label %227

227:                                              ; preds = %151
  %228 = load i32, ptr %27, align 4, !tbaa !32
  %229 = add nsw i32 %228, 1
  store i32 %229, ptr %27, align 4, !tbaa !32
  br label %144, !llvm.loop !177

230:                                              ; preds = %150
  call void @llvm.lifetime.end.p0(i64 4, ptr %23) #10
  br label %231

231:                                              ; preds = %230
  %232 = load i32, ptr %22, align 4, !tbaa !32
  %233 = add nsw i32 %232, 1
  store i32 %233, ptr %22, align 4, !tbaa !32
  br label %48, !llvm.loop !178

234:                                              ; preds = %52
  br label %235

235:                                              ; preds = %234
  %236 = load i32, ptr %20, align 4, !tbaa !32
  %237 = add nsw i32 %236, 1
  store i32 %237, ptr %20, align 4, !tbaa !32
  br label %42, !llvm.loop !179

238:                                              ; preds = %46
  call void @llvm.lifetime.end.p0(i64 4, ptr %19) #10
  call void @llvm.lifetime.end.p0(i64 4, ptr %18) #10
  call void @llvm.lifetime.end.p0(i64 8, ptr %17) #10
  ret void
}