; Function Attrs: nofree norecurse nosync nounwind memory(readwrite, inaccessiblemem: none) uwtable
define internal void @distance16_transition(ptr noundef readonly captures(none) %0, ptr noundef readonly captures(none) %1, ptr noundef readonly captures(none) %2, ptr noundef readonly captures(none) %3, float noundef %4, i32 noundef %5, i32 noundef %6, i32 %7) #6 {
  %9 = getelementptr inbounds nuw i8, ptr %0, i64 72
  %10 = load ptr, ptr %9, align 8, !tbaa !4
  %11 = getelementptr inbounds nuw i8, ptr %3, i64 104
  %12 = load i32, ptr %11, align 8, !tbaa !85
  %13 = getelementptr inbounds nuw i8, ptr %10, i64 120
  %14 = load i32, ptr %13, align 8, !tbaa !78
  %15 = sitofp i32 %14 to float
  %16 = icmp slt i32 %5, %6
  br i1 %16, label %.preheader69.lr.ph, label %._crit_edge

.preheader69.lr.ph:                               ; preds = %8
  %17 = icmp sgt i32 %12, 0
  %18 = getelementptr inbounds nuw i8, ptr %1, i64 64
  %19 = getelementptr inbounds nuw i8, ptr %2, i64 64
  %20 = getelementptr inbounds nuw i8, ptr %3, i64 64
  %21 = fsub nsz float 1.000000e+00, %4
  br i1 %17, label %.preheader69.lr.ph.split.us, label %._crit_edge

.preheader69.lr.ph.split.us:                      ; preds = %.preheader69.lr.ph
  %22 = getelementptr inbounds nuw i8, ptr %10, i64 40
  %23 = load i32, ptr %22, align 8, !tbaa !77
  %24 = icmp sgt i32 %23, 0
  br i1 %24, label %.preheader69.lr.ph.split.us.split.us, label %._crit_edge

.preheader69.lr.ph.split.us.split.us:             ; preds = %.preheader69.lr.ph.split.us
  %wide.trip.count107 = zext nneg i32 %12 to i64
  %wide.trip.count = zext nneg i32 %23 to i64
  br label %.preheader69.us.us.us

.preheader69.us.us.us:                            ; preds = %._crit_edge78.split.us.us.us.split.us.us, %.preheader69.lr.ph.split.us.split.us
  %.085.us.us.us = phi i32 [ %5, %.preheader69.lr.ph.split.us.split.us ], [ %88, %._crit_edge78.split.us.us.us.split.us.us ]
  br label %.preheader.us.us.us.us.us

.preheader.us.us.us.us.us:                        ; preds = %._crit_edge76.us.us.us.us.us, %.preheader69.us.us.us
  %indvars.iv104 = phi i64 [ %indvars.iv.next105, %._crit_edge76.us.us.us.us.us ], [ 0, %.preheader69.us.us.us ]
  br label %59

25:                                               ; preds = %._crit_edge.us.us.us.us.us, %25
  %indvars.iv99 = phi i64 [ 0, %._crit_edge.us.us.us.us.us ], [ %indvars.iv.next100, %25 ]
  %26 = getelementptr inbounds nuw [8 x ptr], ptr %1, i64 0, i64 %indvars.iv99
  %27 = load ptr, ptr %26, align 8, !tbaa !89
  %28 = getelementptr inbounds nuw [8 x i32], ptr %18, i64 0, i64 %indvars.iv99
  %29 = load i32, ptr %28, align 4, !tbaa !31
  %30 = mul nsw i32 %29, %.085.us.us.us
  %31 = sext i32 %30 to i64
  %32 = getelementptr inbounds i8, ptr %27, i64 %31
  %33 = getelementptr inbounds nuw [8 x ptr], ptr %2, i64 0, i64 %indvars.iv99
  %34 = load ptr, ptr %33, align 8, !tbaa !89
  %35 = getelementptr inbounds nuw [8 x i32], ptr %19, i64 0, i64 %indvars.iv99
  %36 = load i32, ptr %35, align 4, !tbaa !31
  %37 = mul nsw i32 %36, %.085.us.us.us
  %38 = sext i32 %37 to i64
  %39 = getelementptr inbounds i8, ptr %34, i64 %38
  %40 = getelementptr inbounds nuw [8 x ptr], ptr %3, i64 0, i64 %indvars.iv99
  %41 = load ptr, ptr %40, align 8, !tbaa !89
  %42 = getelementptr inbounds nuw [8 x i32], ptr %20, i64 0, i64 %indvars.iv99
  %43 = load i32, ptr %42, align 4, !tbaa !31
  %44 = mul nsw i32 %43, %.085.us.us.us
  %45 = sext i32 %44 to i64
  %46 = getelementptr inbounds i8, ptr %41, i64 %45
  %47 = getelementptr inbounds nuw i16, ptr %32, i64 %indvars.iv104
  %48 = load i16, ptr %47, align 2, !tbaa !79
  %49 = uitofp i16 %48 to float
  %50 = getelementptr inbounds nuw i16, ptr %39, i64 %indvars.iv104
  %51 = load i16, ptr %50, align 2, !tbaa !79
  %52 = uitofp i16 %51 to float
  %53 = fmul nsz float %87, %52
  %54 = tail call nsz noundef float @llvm.fmuladd.f32(float %49, float %86, float %53)
  %55 = fmul nsz float %21, %52
  %56 = tail call nsz noundef float @llvm.fmuladd.f32(float %54, float %4, float %55)
  %57 = fptoui float %56 to i16
  %58 = getelementptr inbounds nuw i16, ptr %46, i64 %indvars.iv104
  store i16 %57, ptr %58, align 2, !tbaa !79
  %indvars.iv.next100 = add nuw nsw i64 %indvars.iv99, 1
  %exitcond103.not = icmp eq i64 %indvars.iv.next100, %wide.trip.count
  br i1 %exitcond103.not, label %._crit_edge76.us.us.us.us.us, label %25, !llvm.loop !167

59:                                               ; preds = %59, %.preheader.us.us.us.us.us
  %indvars.iv = phi i64 [ %indvars.iv.next, %59 ], [ 0, %.preheader.us.us.us.us.us ]
  %.06771.us.us.us.us.us = phi float [ %83, %59 ], [ 0.000000e+00, %.preheader.us.us.us.us.us ]
  %60 = getelementptr inbounds nuw [8 x ptr], ptr %1, i64 0, i64 %indvars.iv
  %61 = load ptr, ptr %60, align 8, !tbaa !89
  %62 = getelementptr inbounds nuw [8 x i32], ptr %18, i64 0, i64 %indvars.iv
  %63 = load i32, ptr %62, align 4, !tbaa !31
  %64 = mul nsw i32 %63, %.085.us.us.us
  %65 = sext i32 %64 to i64
  %66 = getelementptr inbounds i8, ptr %61, i64 %65
  %67 = getelementptr inbounds nuw [8 x ptr], ptr %2, i64 0, i64 %indvars.iv
  %68 = load ptr, ptr %67, align 8, !tbaa !89
  %69 = getelementptr inbounds nuw [8 x i32], ptr %19, i64 0, i64 %indvars.iv
  %70 = load i32, ptr %69, align 4, !tbaa !31
  %71 = mul nsw i32 %70, %.085.us.us.us
  %72 = sext i32 %71 to i64
  %73 = getelementptr inbounds i8, ptr %68, i64 %72
  %74 = getelementptr inbounds nuw i16, ptr %66, i64 %indvars.iv104
  %75 = load i16, ptr %74, align 2, !tbaa !79
  %76 = uitofp i16 %75 to float
  %77 = fdiv nsz float %76, %15
  %78 = getelementptr inbounds nuw i16, ptr %73, i64 %indvars.iv104
  %79 = load i16, ptr %78, align 2, !tbaa !79
  %80 = uitofp i16 %79 to float
  %81 = fdiv nsz float %80, %15
  %82 = fsub nsz float %77, %81
  %83 = tail call nsz float @llvm.fmuladd.f32(float %82, float %82, float %.06771.us.us.us.us.us)
  %indvars.iv.next = add nuw nsw i64 %indvars.iv, 1
  %exitcond.not = icmp eq i64 %indvars.iv.next, %wide.trip.count
  br i1 %exitcond.not, label %._crit_edge.us.us.us.us.us, label %59, !llvm.loop !168

._crit_edge.us.us.us.us.us:                       ; preds = %59
  %84 = tail call nsz float @llvm.sqrt.f32(float %83)
  %85 = fcmp nsz ole float %84, %4
  %86 = uitofp i1 %85 to float
  %87 = fsub nsz float 1.000000e+00, %86
  br label %25

._crit_edge76.us.us.us.us.us:                     ; preds = %25
  %indvars.iv.next105 = add nuw nsw i64 %indvars.iv104, 1
  %exitcond108.not = icmp eq i64 %indvars.iv.next105, %wide.trip.count107
  br i1 %exitcond108.not, label %._crit_edge78.split.us.us.us.split.us.us, label %.preheader.us.us.us.us.us, !llvm.loop !169

._crit_edge78.split.us.us.us.split.us.us:         ; preds = %._crit_edge76.us.us.us.us.us
  %88 = add nsw i32 %.085.us.us.us, 1
  %exitcond109.not = icmp eq i32 %88, %6
  br i1 %exitcond109.not, label %._crit_edge, label %.preheader69.us.us.us, !llvm.loop !170

._crit_edge:                                      ; preds = %._crit_edge78.split.us.us.us.split.us.us, %.preheader69.lr.ph.split.us, %.preheader69.lr.ph, %8
  ret void
}